target datalayout = "e-m:e-p270:32:32-p271:32:32-p272:64:64-i64:64-i128:128-f80:128-n8:16:32:64-S128"
target triple = "x86_64-pc-linux-gnu"

%struct.Subprocess = type <{ %"class.std::__cxx11::basic_string", i32, i32, i8, [7 x i8] }>
%"class.std::__cxx11::basic_string" = type { %"struct.std::__cxx11::basic_string<char>::_Alloc_hider", i64, %union.anon }
%"struct.std::__cxx11::basic_string<char>::_Alloc_hider" = type { ptr }
%union.anon = type { i64, [8 x i8] }

@.str.15 = private unnamed_addr constant [16 x i8] c"waitpid(%d): %s\00", align 1

; Function Attrs: mustprogress uwtable
define dso_local noundef i32 @_ZN10Subprocess6FinishEv(ptr noundef nonnull align 8 dereferenceable(41) %0) #3 align 2 {
  %2 = alloca i32, align 4
  %3 = alloca ptr, align 8
  %4 = alloca i32, align 4
  %5 = alloca i32, align 4
  store ptr %0, ptr %3, align 8, !tbaa !4
  %6 = load ptr, ptr %3, align 8
  call void @llvm.lifetime.start.p0(i64 4, ptr %4) #16
  %7 = getelementptr inbounds nuw %struct.Subprocess, ptr %6, i32 0, i32 2
  %8 = load i32, ptr %7, align 4, !tbaa !18
  %9 = call i32 @waitpid(i32 noundef %8, ptr noundef %4, i32 noundef 0)
  %10 = icmp slt i32 %9, 0
  br i1 %10, label %11, label %17

11:                                               ; preds = %1
  %12 = getelementptr inbounds nuw %struct.Subprocess, ptr %6, i32 0, i32 2
  %13 = load i32, ptr %12, align 4, !tbaa !18
  %14 = call ptr @__errno_location() #18
  %15 = load i32, ptr %14, align 4, !tbaa !24
  %16 = call ptr @strerror(i32 noundef %15) #16
  call void (ptr, ...) @_Z5FatalPKcz(ptr noundef @.str.15, i32 noundef %13, ptr noundef %16) #19
  unreachable

17:                                               ; preds = %1
  %18 = getelementptr inbounds nuw %struct.Subprocess, ptr %6, i32 0, i32 2
  store i32 -1, ptr %18, align 4, !tbaa !18
  %19 = load i32, ptr %4, align 4, !tbaa !24
  %20 = and i32 %19, 127
  %21 = icmp eq i32 %20, 0
  br i1 %21, label %22, label %26

22:                                               ; preds = %17
  %23 = load i32, ptr %4, align 4, !tbaa !24
  %24 = and i32 %23, 65280
  %25 = ashr i32 %24, 8
  store i32 %25, ptr %2, align 4
  store i32 1, ptr %5, align 4
  br label %51

26:                                               ; preds = %17
  %27 = load i32, ptr %4, align 4, !tbaa !24
  %28 = and i32 %27, 127
  %29 = add nsw i32 %28, 1
  %30 = trunc i32 %29 to i8
  %31 = sext i8 %30 to i32
  %32 = ashr i32 %31, 1
  %33 = icmp sgt i32 %32, 0
  br i1 %33, label %34, label %48

34:                                               ; preds = %26
  %35 = load i32, ptr %4, align 4, !tbaa !24
  %36 = and i32 %35, 127
  %37 = icmp eq i32 %36, 2
  br i1 %37, label %46, label %38

38:                                               ; preds = %34
  %39 = load i32, ptr %4, align 4, !tbaa !24
  %40 = and i32 %39, 127
  %41 = icmp eq i32 %40, 15
  br i1 %41, label %46, label %42

42:                                               ; preds = %38
  %43 = load i32, ptr %4, align 4, !tbaa !24
  %44 = and i32 %43, 127
  %45 = icmp eq i32 %44, 1
  br i1 %45, label %46, label %47

46:                                               ; preds = %42, %38, %34
  store i32 130, ptr %2, align 4
  store i32 1, ptr %5, align 4
  br label %51

47:                                               ; preds = %42
  br label %48

48:                                               ; preds = %47, %26
  %49 = load i32, ptr %4, align 4, !tbaa !24
  %50 = add nsw i32 %49, 128
  store i32 %50, ptr %2, align 4
  store i32 1, ptr %5, align 4
  br label %51

51:                                               ; preds = %48, %46, %22
  call void @llvm.lifetime.end.p0(i64 4, ptr %4) #16
  %52 = load i32, ptr %2, align 4
  ret i32 %52
}