; Function Attrs: mustprogress uwtable
define dso_local noundef range(i32 -2147483520, -2147483648) i32 @_ZN10Subprocess6FinishEv(ptr noundef nonnull align 8 captures(none) dereferenceable(41) %0) local_unnamed_addr #5 align 2 {
  %2 = alloca i32, align 4
  call void @llvm.lifetime.start.p0(i64 4, ptr nonnull %2) #22
  %3 = getelementptr inbounds nuw i8, ptr %0, i64 36
  %4 = load i32, ptr %3, align 4, !tbaa !18
  %5 = call i32 @waitpid(i32 noundef %4, ptr noundef nonnull %2, i32 noundef 0)
  %6 = icmp slt i32 %5, 0
  br i1 %6, label %7, label %12

7:                                                ; preds = %1
  %8 = load i32, ptr %3, align 4, !tbaa !18
  %9 = tail call ptr @__errno_location() #23
  %10 = load i32, ptr %9, align 4, !tbaa !20
  %11 = call ptr @strerror(i32 noundef %10) #22
  call void (ptr, ...) @_Z5FatalPKcz(ptr noundef nonnull @.str.15, i32 noundef %8, ptr noundef %11) #24
  unreachable

12:                                               ; preds = %1
  store i32 -1, ptr %3, align 4, !tbaa !18
  %13 = load i32, ptr %2, align 4, !tbaa !20
  %14 = and i32 %13, 127
  %15 = icmp eq i32 %14, 0
  br i1 %15, label %16, label %19

16:                                               ; preds = %12
  %17 = lshr i32 %13, 8
  %18 = and i32 %17, 255
  br label %25

19:                                               ; preds = %12
  %20 = shl nuw nsw i32 %14, 24
  %sext = add nuw i32 %20, 16777216
  %21 = icmp sgt i32 %sext, 33554431
  br i1 %21, label %22, label %23

22:                                               ; preds = %19
  switch i32 %14, label %23 [
    i32 2, label %25
    i32 15, label %25
    i32 1, label %25
  ]

23:                                               ; preds = %22, %19
  %24 = add nsw i32 %13, 128
  br label %25

25:                                               ; preds = %22, %22, %22, %23, %16
  %.0 = phi i32 [ %18, %16 ], [ %24, %23 ], [ 130, %22 ], [ 130, %22 ], [ 130, %22 ]
  call void @llvm.lifetime.end.p0(i64 4, ptr nonnull %2) #22
  ret i32 %.0
}